target datalayout = "e-m:e-p270:32:32-p271:32:32-p272:64:64-i64:64-i128:128-f80:128-n8:16:32:64-S128"
target triple = "x86_64-pc-linux-gnu"

%struct._lv_calendar_t = type { %struct._lv_obj_t, ptr, %struct.lv_calendar_date_t, %struct.lv_calendar_date_t, ptr, i64, [56 x ptr], i8, [42 x [20 x i8]] }
%struct._lv_obj_t = type { ptr, ptr, ptr, ptr, ptr, %struct.lv_area_t, i32, i16, i16 }
%struct.lv_area_t = type { i32, i32, i32, i32 }
%struct.lv_calendar_date_t = type { i16, i8, i8 }

; Function Attrs: nounwind uwtable
define void @lv_calendar_set_day_names(ptr noundef %0, ptr noundef %1) #0 {
  %3 = alloca ptr, align 8
  %4 = alloca ptr, align 8
  %5 = alloca ptr, align 8
  %6 = alloca i32, align 4
  store ptr %0, ptr %3, align 8, !tbaa !3
  store ptr %1, ptr %4, align 8, !tbaa !3
  br label %7

7:                                                ; preds = %2
  br label %8

8:                                                ; preds = %7
  call void @llvm.lifetime.start.p0(i64 8, ptr %5) #5
  %9 = load ptr, ptr %3, align 8, !tbaa !3
  store ptr %9, ptr %5, align 8, !tbaa !3
  call void @llvm.lifetime.start.p0(i64 4, ptr %6) #5
  store i32 0, ptr %6, align 4, !tbaa !27
  br label %10

10:                                               ; preds = %24, %8
  %11 = load i32, ptr %6, align 4, !tbaa !27
  %12 = icmp ult i32 %11, 7
  br i1 %12, label %13, label %27

13:                                               ; preds = %10
  %14 = load ptr, ptr %4, align 8, !tbaa !3
  %15 = load i32, ptr %6, align 4, !tbaa !27
  %16 = zext i32 %15 to i64
  %17 = getelementptr inbounds nuw ptr, ptr %14, i64 %16
  %18 = load ptr, ptr %17, align 8, !tbaa !3
  %19 = load ptr, ptr %5, align 8, !tbaa !3
  %20 = getelementptr inbounds nuw %struct._lv_calendar_t, ptr %19, i32 0, i32 6
  %21 = load i32, ptr %6, align 4, !tbaa !27
  %22 = zext i32 %21 to i64
  %23 = getelementptr inbounds nuw [56 x ptr], ptr %20, i64 0, i64 %22
  store ptr %18, ptr %23, align 8, !tbaa !3
  br label %24

24:                                               ; preds = %13
  %25 = load i32, ptr %6, align 4, !tbaa !27
  %26 = add i32 %25, 1
  store i32 %26, ptr %6, align 4, !tbaa !27
  br label %10, !llvm.loop !28

27:                                               ; preds = %10
  %28 = load ptr, ptr %3, align 8, !tbaa !3
  call void @lv_obj_invalidate(ptr noundef %28)
  call void @llvm.lifetime.end.p0(i64 4, ptr %6) #5
  call void @llvm.lifetime.end.p0(i64 8, ptr %5) #5
  ret void
}