; Function Attrs: nounwind uwtable
define void @lv_calendar_set_day_names(ptr noundef %0, ptr nocapture noundef readonly %1) local_unnamed_addr #0 {
  %3 = getelementptr inbounds nuw i8, ptr %0, i64 96
  br label %4

4:                                                ; preds = %2, %4
  %indvars.iv = phi i64 [ 0, %2 ], [ %indvars.iv.next, %4 ]
  %5 = getelementptr inbounds nuw ptr, ptr %1, i64 %indvars.iv
  %6 = load ptr, ptr %5, align 8, !tbaa !20
  %7 = getelementptr inbounds nuw [56 x ptr], ptr %3, i64 0, i64 %indvars.iv
  store ptr %6, ptr %7, align 8, !tbaa !20
  %indvars.iv.next = add nuw nsw i64 %indvars.iv, 1
  %exitcond.not = icmp eq i64 %indvars.iv.next, 7
  br i1 %exitcond.not, label %8, label %4, !llvm.loop !25

8:                                                ; preds = %4
  tail call void @lv_obj_invalidate(ptr noundef nonnull %0) #5
  ret void
}